(lp1
Vallcap
p2
aVark_clust_tot:0000
p3
aVark_clust_tot:000100
p4
aVark_clust_tot:000101
p5
aVark_clust_tot:000110
p6
aVark_clust_tot:0001110
p7
aVark_clust_tot:0001111
p8
aVark_clust_tot:001000
p9
aVark_clust_tot:001001
p10
aVark_clust_tot:0010100
p11
aVark_clust_tot:001010110
p12
aVark_clust_tot:001010111
p13
aVark_clust_tot:00101100
p14
aVark_clust_tot:00101101
p15
aVark_clust_tot:00101110
p16
aVark_clust_tot:001011111010
p17
aVark_clust_tot:0010111110110
p18
aVark_clust_tot:0010111110111
p19
aVark_clust_tot:00101111110
p20
aVark_clust_tot:001011111110
p21
aVark_clust_tot:0011000
p22
aVark_clust_tot:00111000
p23
aVark_clust_tot:00111001
p24
aVark_clust_tot:001110100
p25
aVark_clust_tot:001110110
p26
aVark_clust_tot:001110111
p27
aVark_clust_tot:00111100
p28
aVark_clust_tot:0011110110
p29
aVark_clust_tot:0011110111
p30
aVark_clust_tot:00111110
p31
aVark_clust_tot:0100000
p32
aVark_clust_tot:01000010
p33
aVark_clust_tot:01000011
p34
aVark_clust_tot:010001001
p35
aVark_clust_tot:0100010110
p36
aVark_clust_tot:010001100
p37
aVark_clust_tot:0100011010
p38
aVark_clust_tot:0100011011
p39
aVark_clust_tot:010001110
p40
aVark_clust_tot:01000111100
p41
aVark_clust_tot:01000111110
p42
aVark_clust_tot:0100100
p43
aVark_clust_tot:01001010
p44
aVark_clust_tot:01001011
p45
aVark_clust_tot:010011000
p46
aVark_clust_tot:0100110011
p47
aVark_clust_tot:01001101001
p48
aVark_clust_tot:010011011010
p49
aVark_clust_tot:01001110011
p50
aVark_clust_tot:010011110
p51
aVark_clust_tot:01001111111
p52
aVark_clust_tot:010100000111
p53
aVark_clust_tot:010100010
p54
aVark_clust_tot:01010100000
p55
aVark_clust_tot:010101000011
p56
aVark_clust_tot:01010100010
p57
aVark_clust_tot:010101000110
p58
aVark_clust_tot:010101001010
p59
aVark_clust_tot:01010101010
p60
aVark_clust_tot:0101010110
p61
aVark_clust_tot:010101011110
p62
aVark_clust_tot:010101101
p63
aVark_clust_tot:0101100001
p64
aVark_clust_tot:0101100010
p65
aVark_clust_tot:01011000110
p66
aVark_clust_tot:01011001000
p67
aVark_clust_tot:010110010110
p68
aVark_clust_tot:01011001100111
p69
aVark_clust_tot:010110011010
p70
aVark_clust_tot:010110011011
p71
aVark_clust_tot:0101100111101
p72
aVark_clust_tot:0101101010
p73
aVark_clust_tot:0101101011
p74
aVark_clust_tot:010110110
p75
aVark_clust_tot:01011011100
p76
aVark_clust_tot:0101101111011
p77
aVark_clust_tot:010110111110
p78
aVark_clust_tot:01011011111100
p79
aVark_clust_tot:01011011111111
p80
aVark_clust_tot:0101110
p81
aVark_clust_tot:01011110011
p82
aVark_clust_tot:0101111010
p83
aVark_clust_tot:0101111011
p84
aVark_clust_tot:010111110
p85
aVark_clust_tot:011000000
p86
aVark_clust_tot:011000010
p87
aVark_clust_tot:0110000110
p88
aVark_clust_tot:0110000111
p89
aVark_clust_tot:0110001010
p90
aVark_clust_tot:0110001011
p91
aVark_clust_tot:011000110
p92
aVark_clust_tot:0110010000
p93
aVark_clust_tot:0110010010
p94
aVark_clust_tot:01100100110
p95
aVark_clust_tot:011001010
p96
aVark_clust_tot:0110010110
p97
aVark_clust_tot:011001100
p98
aVark_clust_tot:011001110
p99
aVark_clust_tot:0110011111
p100
aVark_clust_tot:011010000
p101
aVark_clust_tot:0110100010
p102
aVark_clust_tot:011010001110
p103
aVark_clust_tot:0110100011111
p104
aVark_clust_tot:0110100100
p105
aVark_clust_tot:01101001010
p106
aVark_clust_tot:01101001011
p107
aVark_clust_tot:0110100110
p108
aVark_clust_tot:0110100111
p109
aVark_clust_tot:011010100
p110
aVark_clust_tot:011010110
p111
aVark_clust_tot:0110101110
p112
aVark_clust_tot:01101011110
p113
aVark_clust_tot:0110101111110
p114
aVark_clust_tot:01101100000
p115
aVark_clust_tot:01101100001
p116
aVark_clust_tot:011011000101
p117
aVark_clust_tot:011011000110
p118
aVark_clust_tot:0110110010
p119
aVark_clust_tot:01101100110
p120
aVark_clust_tot:01101100111
p121
aVark_clust_tot:011011010
p122
aVark_clust_tot:0110110110
p123
aVark_clust_tot:011011100
p124
aVark_clust_tot:0110111010
p125
aVark_clust_tot:011011110
p126
aVark_clust_tot:011011111010
p127
aVark_clust_tot:011011111011
p128
aVark_clust_tot:0110111111001
p129
aVark_clust_tot:01101111110100
p130
aVark_clust_tot:01101111110101
p131
aVark_clust_tot:01101111110110
p132
aVark_clust_tot:011011111101111
p133
aVark_clust_tot:01101111111010
p134
aVark_clust_tot:01110000
p135
aVark_clust_tot:01110010
p136
aVark_clust_tot:011100110
p137
aVark_clust_tot:0111001110
p138
aVark_clust_tot:01110011110
p139
aVark_clust_tot:011100111110
p140
aVark_clust_tot:01110100
p141
aVark_clust_tot:011101011
p142
aVark_clust_tot:01110110
p143
aVark_clust_tot:01110111000
p144
aVark_clust_tot:011101110110
p145
aVark_clust_tot:01110111110
p146
aVark_clust_tot:01111000100
p147
aVark_clust_tot:011110001100
p148
aVark_clust_tot:0111100011100
p149
aVark_clust_tot:0111100100000
p150
aVark_clust_tot:01111001000011
p151
aVark_clust_tot:011110010010
p152
aVark_clust_tot:011110010100
p153
aVark_clust_tot:0111100101101
p154
aVark_clust_tot:0111100101110
p155
aVark_clust_tot:01111001011111
p156
aVark_clust_tot:011110100010
p157
aVark_clust_tot:01111010010
p158
aVark_clust_tot:011110100110
p159
aVark_clust_tot:011110101110
p160
aVark_clust_tot:01111011000
p161
aVark_clust_tot:011110110010
p162
aVark_clust_tot:01111011010
p163
aVark_clust_tot:011110111010
p164
aVark_clust_tot:0111101110110
p165
aVark_clust_tot:0111101110111
p166
aVark_clust_tot:01111011110010
p167
aVark_clust_tot:0111101111010
p168
aVark_clust_tot:01111011110110
p169
aVark_clust_tot:0111101111100
p170
aVark_clust_tot:0111101111101
p171
aVark_clust_tot:01111011111100
p172
aVark_clust_tot:011110111111010
p173
aVark_clust_tot:01111011111111
p174
aVark_clust_tot:01111100
p175
aVark_clust_tot:011111010
p176
aVark_clust_tot:01111101100
p177
aVark_clust_tot:011111011010
p178
aVark_clust_tot:01111101110
p179
aVark_clust_tot:0111111000
p180
aVark_clust_tot:01111110010
p181
aVark_clust_tot:01111110011
p182
aVark_clust_tot:01111110100
p183
aVark_clust_tot:0111111010111
p184
aVark_clust_tot:01111110111
p185
aVark_clust_tot:011111110
p186
aVark_clust_tot:0111111110
p187
aVark_clust_tot:01111111110
p188
aVark_clust_tot:100000
p189
aVark_clust_tot:100001
p190
aVark_clust_tot:1000100
p191
aVark_clust_tot:10001010
p192
aVark_clust_tot:10001100
p193
aVark_clust_tot:10001101
p194
aVark_clust_tot:10001110
p195
aVark_clust_tot:10001111
p196
aVark_clust_tot:10010
p197
aVark_clust_tot:1001100
p198
aVark_clust_tot:10011010
p199
aVark_clust_tot:100110110
p200
aVark_clust_tot:100110111
p201
aVark_clust_tot:1001110111
p202
aVark_clust_tot:10011110
p203
aVark_clust_tot:10011111
p204
aVark_clust_tot:1010
p205
aVark_clust_tot:10110
p206
aVark_clust_tot:1011100
p207
aVark_clust_tot:1011101000
p208
aVark_clust_tot:101110110
p209
aVark_clust_tot:1011101110
p210
aVark_clust_tot:101110111100
p211
aVark_clust_tot:101110111101
p212
aVark_clust_tot:10111100
p213
aVark_clust_tot:10111110
p214
aVark_clust_tot:10111111
p215
aVark_clust_tot:11000
p216
aVark_clust_tot:11001
p217
aVark_clust_tot:110100
p218
aVark_clust_tot:110110
p219
aVark_clust_tot:11011100
p220
aVark_clust_tot:11011110
p221
aVark_clust_tot:110111110
p222
aVark_clust_tot:110111111
p223
aVark_clust_tot:1110000100
p224
aVark_clust_tot:111000010111
p225
aVark_clust_tot:11100001110
p226
aVark_clust_tot:11100010
p227
aVark_clust_tot:11100011101
p228
aVark_clust_tot:11100100
p229
aVark_clust_tot:1110010100
p230
aVark_clust_tot:1110010101
p231
aVark_clust_tot:1110010111111
p232
aVark_clust_tot:111001100010
p233
aVark_clust_tot:111001100011
p234
aVark_clust_tot:11100110010
p235
aVark_clust_tot:1110011001110
p236
aVark_clust_tot:11100110100
p237
aVark_clust_tot:11100110101
p238
aVark_clust_tot:11100110110
p239
aVark_clust_tot:111001101111
p240
aVark_clust_tot:111001110
p241
aVark_clust_tot:111001111
p242
aVark_clust_tot:1110100
p243
aVark_clust_tot:11101010000
p244
aVark_clust_tot:111010100010
p245
aVark_clust_tot:111010100011
p246
aVark_clust_tot:111010100100
p247
aVark_clust_tot:111010100101
p248
aVark_clust_tot:111010100110
p249
aVark_clust_tot:11101010011111
p250
aVark_clust_tot:111010101000
p251
aVark_clust_tot:11101010100110
p252
aVark_clust_tot:1110101010110
p253
aVark_clust_tot:11101010110
p254
aVark_clust_tot:1110101011110
p255
aVark_clust_tot:1110101011111
p256
aVark_clust_tot:111010110001
p257
aVark_clust_tot:11101011001010
p258
aVark_clust_tot:11101011001011
p259
aVark_clust_tot:1110101100111
p260
aVark_clust_tot:111010110100
p261
aVark_clust_tot:111010110101
p262
aVark_clust_tot:111010110110
p263
aVark_clust_tot:11101011011100
p264
aVark_clust_tot:11101011011101
p265
aVark_clust_tot:111010110111100
p266
aVark_clust_tot:111010111100
p267
aVark_clust_tot:1110101111100
p268
aVark_clust_tot:1110101111110
p269
aVark_clust_tot:1110110
p270
aVark_clust_tot:11101110
p271
aVark_clust_tot:11101111
p272
aVark_clust_tot:111100000000
p273
aVark_clust_tot:1111000110
p274
aVark_clust_tot:11110010000
p275
aVark_clust_tot:11110010001
p276
aVark_clust_tot:111100100100
p277
aVark_clust_tot:111100100101
p278
aVark_clust_tot:1111001001101
p279
aVark_clust_tot:1111001001110
p280
aVark_clust_tot:11110010011110
p281
aVark_clust_tot:111100101011
p282
aVark_clust_tot:1111001011000
p283
aVark_clust_tot:11110010110011
p284
aVark_clust_tot:11110010110101
p285
aVark_clust_tot:111100101101110
p286
aVark_clust_tot:1111001011100
p287
aVark_clust_tot:11110010111010
p288
aVark_clust_tot:11110010111011
p289
aVark_clust_tot:111100110000
p290
aVark_clust_tot:111100110001
p291
aVark_clust_tot:1111001100100
p292
aVark_clust_tot:1111001100101
p293
aVark_clust_tot:111100110100
p294
aVark_clust_tot:1111001101010
p295
aVark_clust_tot:1111001101011
p296
aVark_clust_tot:1111001101100
p297
aVark_clust_tot:11110011011010
p298
aVark_clust_tot:11110011011011
p299
aVark_clust_tot:11110011011100
p300
aVark_clust_tot:111100110111100
p301
aVark_clust_tot:111100110111101
p302
aVark_clust_tot:111100111000
p303
aVark_clust_tot:111100111010
p304
aVark_clust_tot:1111001110110
p305
aVark_clust_tot:1111001111000
p306
aVark_clust_tot:11110011110010
p307
aVark_clust_tot:1111001111100
p308
aVark_clust_tot:1111001111110
p309
aVark_clust_tot:11110011111110
p310
aVark_clust_tot:1111001111111100
p311
aVark_clust_tot:1111010000
p312
aVark_clust_tot:1111010010
p313
aVark_clust_tot:11110100110
p314
aVark_clust_tot:1111010100
p315
aVark_clust_tot:1111010101001
p316
aVark_clust_tot:1111010101010
p317
aVark_clust_tot:1111010101011
p318
aVark_clust_tot:11110101011010
p319
aVark_clust_tot:1111010101110
p320
aVark_clust_tot:111101011000
p321
aVark_clust_tot:111101011001
p322
aVark_clust_tot:1111010110110
p323
aVark_clust_tot:1111010111100
p324
aVark_clust_tot:11110101111011
p325
aVark_clust_tot:111101100010
p326
aVark_clust_tot:11110110010
p327
aVark_clust_tot:1111011001111
p328
aVark_clust_tot:1111011010
p329
aVark_clust_tot:111101101101
p330
aVark_clust_tot:1111011100000
p331
aVark_clust_tot:11110111001000
p332
aVark_clust_tot:11110111001001
p333
aVark_clust_tot:1111011101000
p334
aVark_clust_tot:11110111010010
p335
aVark_clust_tot:111101110100111
p336
aVark_clust_tot:11110111010100
p337
aVark_clust_tot:11110111010101
p338
aVark_clust_tot:11110111010110
p339
aVark_clust_tot:111101110101110
p340
aVark_clust_tot:111101110101111
p341
aVark_clust_tot:111101110110101
p342
aVark_clust_tot:111101110111011
p343
aVark_clust_tot:111101110111110
p344
aVark_clust_tot:111101111000
p345
aVark_clust_tot:1111011110010
p346
aVark_clust_tot:11110111100110
p347
aVark_clust_tot:111101111001110
p348
aVark_clust_tot:111101111001111
p349
aVark_clust_tot:1111011110100
p350
aVark_clust_tot:111101111011010
p351
aVark_clust_tot:1111011110111100
p352
aVark_clust_tot:1111011110111101
p353
aVark_clust_tot:1111011110111110
p354
aVark_clust_tot:1111011110111111
p355
aVark_clust_tot:111101111100010
p356
aVark_clust_tot:111101111100011
p357
aVark_clust_tot:111101111100100
p358
aVark_clust_tot:111101111100101
p359
aVark_clust_tot:111101111101010
p360
aVark_clust_tot:1111011111110
p361
aVark_clust_tot:11111000000
p362
aVark_clust_tot:11111000001
p363
aVark_clust_tot:111110000110
p364
aVark_clust_tot:111110001011
p365
aVark_clust_tot:111110001100
p366
aVark_clust_tot:111110001101
p367
aVark_clust_tot:1111100011110
p368
aVark_clust_tot:11111000111111
p369
aVark_clust_tot:11111001000
p370
aVark_clust_tot:11111001001011
p371
aVark_clust_tot:1111100100110
p372
aVark_clust_tot:11111001001111
p373
aVark_clust_tot:11111001010
p374
aVark_clust_tot:1111100110
p375
aVark_clust_tot:11111001110
p376
aVark_clust_tot:111110011110
p377
aVark_clust_tot:1111100111111
p378
aVark_clust_tot:1111101001
p379
aVark_clust_tot:1111101010
p380
aVark_clust_tot:1111101011
p381
aVark_clust_tot:1111101101
p382
aVark_clust_tot:11111100000
p383
aVark_clust_tot:111111000010
p384
aVark_clust_tot:111111000100
p385
aVark_clust_tot:1111110001010
p386
aVark_clust_tot:11111100010110
p387
aVark_clust_tot:11111100010111
p388
aVark_clust_tot:1111110001100
p389
aVark_clust_tot:111111000111101
p390
aVark_clust_tot:111111001000
p391
aVark_clust_tot:1111110010010
p392
aVark_clust_tot:1111110010011
p393
aVark_clust_tot:1111110010100
p394
aVark_clust_tot:1111110010101
p395
aVark_clust_tot:1111110010110
p396
aVark_clust_tot:1111110010111
p397
aVark_clust_tot:1111110011000
p398
aVark_clust_tot:111111010000
p399
aVark_clust_tot:111111010001
p400
aVark_clust_tot:111111010010
p401
aVark_clust_tot:1111110100111
p402
aVark_clust_tot:111111010100
p403
aVark_clust_tot:111111010101
p404
aVark_clust_tot:111111010110
p405
aVark_clust_tot:1111110101110
p406
aVark_clust_tot:1111110110
p407
aVark_clust_tot:111111011101011
p408
aVark_clust_tot:11111101110110
p409
aVark_clust_tot:1111110111100
p410
aVark_clust_tot:1111110111110
p411
aVark_clust_tot:1111111000
p412
aVark_clust_tot:1111111001
p413
aVark_clust_tot:111111101010
p414
aVark_clust_tot:1111111010110
p415
aVark_clust_tot:11111110101110
p416
aVark_clust_tot:11111110101111
p417
aVark_clust_tot:111111101101
p418
aVark_clust_tot:111111101110
p419
aVark_clust_tot:1111111100
p420
aVark_clust_tot:11111111010
p421
aVark_clust_tot:1111111101110
p422
aVark_clust_tot:1111111110
p423
aVark_clust_tot:111111111100
p424
aVark_clust_tot:111111111101
p425
aVark_clust_tot:1111111111110
p426
aVark_clust_tot:1111111111111
p427
aVdeprel:conj
p428
aVdeprel:coord
p429
aVdeprel:mwe
p430
aVdoubledigit
p431
aVhasdash
p432
aVhasdigit
p433
aVht
p434
aVi_am_rule
p435
aVin_dict:animals.txt
p436
aVin_dict:base.events.festival_series
p437
aVin_dict:behaviors.txt
p438
aVin_dict:book.newspaper
p439
aVin_dict:business.brand
p440
aVin_dict:business.consumer_product
p441
aVin_dict:business.sponsor
p442
aVin_dict:city.txt
p443
aVin_dict:country.lst
p444
aVin_dict:expert_non
p445
aVin_dict:government.lst
p446
aVin_dict:identities.txt
p447
aVin_dict:imdb_game_all.txt
p448
aVin_dict:imdb_movie_2010_2015.txt
p449
aVin_dict:imdb_movie_all.txt
p450
aVin_dict:imdb_tv_series.txt
p451
aVin_dict:internet.website
p452
aVin_dict:job_identities.txt
p453
aVin_dict:music_artists.txt
p454
aVin_dict:nfl-teams.lst
p455
aVin_dict:product
p456
aVin_dict:racial_slur_identities.txt
p457
aVin_dict:sports.sports_team
p458
aVin_dict:stopword
p459
aVin_dict:time.recurring_event
p460
aVin_dict:time_words.txt
p461
aVin_dict:tv.tv_network
p462
aVin_dict:tv_series_wiki.txt
p463
aVin_dict:twit_identities_10
p464
aVin_dict:twit_identities_100
p465
aVin_dict:twit_identities_1000
p466
aVin_dict:twit_identities_10000
p467
aVin_dict:twit_identities_50000
p468
aVin_dict:venture_capital.venture_funded_company
p469
aVin_dict:wordnet.txt
p470
aVin_dict:wordnet_identities.txt
p471
aVinitcap
p472
aVlast_word_in_entity
p473
aVn_gram:in_dictionary:behaviors.txt
p474
aVn_gram:in_dictionary:city.txt
p475
aVn_gram:in_dictionary:identities.txt
p476
aVn_gram:in_dictionary:imdb_game_all.txt
p477
aVn_gram:in_dictionary:imdb_movie_2010_2015.txt
p478
aVn_gram:in_dictionary:imdb_movie_all.txt
p479
aVn_gram:in_dictionary:imdb_tv_series.txt
p480
aVn_gram:in_dictionary:internet.website
p481
aVn_gram:in_dictionary:music_artists.txt
p482
aVn_gram:in_dictionary:tv_series_wiki.txt
p483
aVn_gram:in_dictionary:twit_identities_10
p484
aVn_gram:in_dictionary:twit_identities_100
p485
aVn_gram:in_dictionary:twit_identities_1000
p486
aVn_gram:in_dictionary:twit_identities_10000
p487
aVn_gram:in_dictionary:twit_identities_50000
p488
aVn_gram:in_dictionary:wordnet.txt
p489
aVn_gram:in_dictionary:wordnet_identities.txt
p490
aVnot_last_word_in_entity
p491
aVpenn_treebank_pos=''
p492
aVpenn_treebank_pos=,
p493
aVpenn_treebank_pos=-lrb-
p494
aVpenn_treebank_pos=-rrb-
p495
aVpenn_treebank_pos=.
p496
aVpenn_treebank_pos=:
p497
aVpenn_treebank_pos=cc
p498
aVpenn_treebank_pos=cd
p499
aVpenn_treebank_pos=dt
p500
aVpenn_treebank_pos=ex
p501
aVpenn_treebank_pos=ht
p502
aVpenn_treebank_pos=in
p503
aVpenn_treebank_pos=jj
p504
aVpenn_treebank_pos=jjr
p505
aVpenn_treebank_pos=jjs
p506
aVpenn_treebank_pos=md
p507
aVpenn_treebank_pos=nn
p508
aVpenn_treebank_pos=nnp
p509
aVpenn_treebank_pos=nns
p510
aVpenn_treebank_pos=prp
p511
aVpenn_treebank_pos=prp$
p512
aVpenn_treebank_pos=rb
p513
aVpenn_treebank_pos=rbr
p514
aVpenn_treebank_pos=rp
p515
aVpenn_treebank_pos=rt
p516
aVpenn_treebank_pos=to
p517
aVpenn_treebank_pos=uh
p518
aVpenn_treebank_pos=url
p519
aVpenn_treebank_pos=usr
p520
aVpenn_treebank_pos=vb
p521
aVpenn_treebank_pos=vbd
p522
aVpenn_treebank_pos=vbg
p523
aVpenn_treebank_pos=vbn
p524
aVpenn_treebank_pos=vbp
p525
aVpenn_treebank_pos=vbz
p526
aVpenn_treebank_pos=wdt
p527
aVpenn_treebank_pos=wp
p528
aVpenn_treebank_pos=wrb
p529
aVpeople nns
p530
aVpeople_rule
p531
aVpos:!
p532
aVpos:#
p533
aVpos:$
p534
aVpos:&
p535
aVpos:,
p536
aVpos:@
p537
aVpos:^
p538
aVpos:a
p539
aVpos:d
p540
aVpos:e
p541
aVpos:g
p542
aVpos:l
p543
aVpos:n
p544
aVpos:o
p545
aVpos:p
p546
aVpos:r
p547
aVpos:s
p548
aVpos:t
p549
aVpos:u
p550
aVpos:v
p551
aVpos:x
p552
aVpos:z
p553
aVpos:~
p554
aVprefix=!
p555
aVprefix=!!
p556
aVprefix=#
p557
aVprefix=#a
p558
aVprefix=#b
p559
aVprefix=#c
p560
aVprefix=#d
p561
aVprefix=#e
p562
aVprefix=#f
p563
aVprefix=#g
p564
aVprefix=#i
p565
aVprefix=#j
p566
aVprefix=#l
p567
aVprefix=#m
p568
aVprefix=#n
p569
aVprefix=#o
p570
aVprefix=#p
p571
aVprefix=#r
p572
aVprefix=#s
p573
aVprefix=#t
p574
aVprefix=#w
p575
aVprefix=.
p576
aVprefix=..
p577
aVprefix=1
p578
aVprefix=2
p579
aVprefix=@
p580
aVprefix=@a
p581
aVprefix=@b
p582
aVprefix=@c
p583
aVprefix=@d
p584
aVprefix=@e
p585
aVprefix=@f
p586
aVprefix=@g
p587
aVprefix=@h
p588
aVprefix=@i
p589
aVprefix=@j
p590
aVprefix=@k
p591
aVprefix=@l
p592
aVprefix=@m
p593
aVprefix=@n
p594
aVprefix=@p
p595
aVprefix=@r
p596
aVprefix=@s
p597
aVprefix=@t
p598
aVprefix=@w
p599
aVprefix=@y
p600
aVprefix=a
p601
aVprefix=ab
p602
aVprefix=ac
p603
aVprefix=ad
p604
aVprefix=af
p605
aVprefix=ag
p606
aVprefix=ai
p607
aVprefix=al
p608
aVprefix=am
p609
aVprefix=an
p610
aVprefix=ap
p611
aVprefix=ar
p612
aVprefix=as
p613
aVprefix=at
p614
aVprefix=au
p615
aVprefix=aw
p616
aVprefix=b
p617
aVprefix=ba
p618
aVprefix=be
p619
aVprefix=bi
p620
aVprefix=bl
p621
aVprefix=bo
p622
aVprefix=br
p623
aVprefix=bu
p624
aVprefix=c
p625
aVprefix=ca
p626
aVprefix=ch
p627
aVprefix=ci
p628
aVprefix=cl
p629
aVprefix=co
p630
aVprefix=cr
p631
aVprefix=cu
p632
aVprefix=d
p633
aVprefix=da
p634
aVprefix=de
p635
aVprefix=di
p636
aVprefix=do
p637
aVprefix=dr
p638
aVprefix=du
p639
aVprefix=e
p640
aVprefix=ea
p641
aVprefix=el
p642
aVprefix=em
p643
aVprefix=en
p644
aVprefix=ev
p645
aVprefix=ex
p646
aVprefix=f
p647
aVprefix=fa
p648
aVprefix=fe
p649
aVprefix=fi
p650
aVprefix=fl
p651
aVprefix=fo
p652
aVprefix=fr
p653
aVprefix=fu
p654
aVprefix=g
p655
aVprefix=ga
p656
aVprefix=ge
p657
aVprefix=gi
p658
aVprefix=go
p659
aVprefix=gr
p660
aVprefix=gu
p661
aVprefix=h
p662
aVprefix=ha
p663
aVprefix=he
p664
aVprefix=hi
p665
aVprefix=ho
p666
aVprefix=ht
p667
aVprefix=hu
p668
aVprefix=i
p669
aVprefix=i'
p670
aVprefix=id
p671
aVprefix=il
p672
aVprefix=im
p673
aVprefix=in
p674
aVprefix=is
p675
aVprefix=it
p676
aVprefix=j
p677
aVprefix=ja
p678
aVprefix=je
p679
aVprefix=jo
p680
aVprefix=ju
p681
aVprefix=k
p682
aVprefix=ke
p683
aVprefix=ki
p684
aVprefix=kn
p685
aVprefix=l
p686
aVprefix=la
p687
aVprefix=le
p688
aVprefix=li
p689
aVprefix=lm
p690
aVprefix=lo
p691
aVprefix=m
p692
aVprefix=ma
p693
aVprefix=me
p694
aVprefix=mi
p695
aVprefix=mo
p696
aVprefix=mu
p697
aVprefix=n
p698
aVprefix=na
p699
aVprefix=ne
p700
aVprefix=ni
p701
aVprefix=no
p702
aVprefix=o
p703
aVprefix=ob
p704
aVprefix=of
p705
aVprefix=ol
p706
aVprefix=on
p707
aVprefix=op
p708
aVprefix=or
p709
aVprefix=ot
p710
aVprefix=ou
p711
aVprefix=ov
p712
aVprefix=ow
p713
aVprefix=p
p714
aVprefix=pa
p715
aVprefix=pe
p716
aVprefix=ph
p717
aVprefix=pi
p718
aVprefix=pl
p719
aVprefix=po
p720
aVprefix=pr
p721
aVprefix=pu
p722
aVprefix=q
p723
aVprefix=qu
p724
aVprefix=r
p725
aVprefix=ra
p726
aVprefix=re
p727
aVprefix=ri
p728
aVprefix=ro
p729
aVprefix=ru
p730
aVprefix=s
p731
aVprefix=sa
p732
aVprefix=sc
p733
aVprefix=se
p734
aVprefix=sh
p735
aVprefix=si
p736
aVprefix=sl
p737
aVprefix=sm
p738
aVprefix=so
p739
aVprefix=sp
p740
aVprefix=st
p741
aVprefix=su
p742
aVprefix=sw
p743
aVprefix=t
p744
aVprefix=ta
p745
aVprefix=te
p746
aVprefix=th
p747
aVprefix=ti
p748
aVprefix=to
p749
aVprefix=tr
p750
aVprefix=tu
p751
aVprefix=tw
p752
aVprefix=u
p753
aVprefix=un
p754
aVprefix=up
p755
aVprefix=us
p756
aVprefix=v
p757
aVprefix=va
p758
aVprefix=ve
p759
aVprefix=vi
p760
aVprefix=vo
p761
aVprefix=w
p762
aVprefix=wa
p763
aVprefix=we
p764
aVprefix=wh
p765
aVprefix=wi
p766
aVprefix=wo
p767
aVprefix=wr
p768
aVprefix=y
p769
aVprefix=ye
p770
aVprefix=yo
p771
aVprefix=\ud83d
p772
aVproper_noun
p773
aVsingledigit
p774
aVsuffix=!
p775
aVsuffix=!!
p776
aVsuffix='m
p777
aVsuffix='s
p778
aVsuffix='t
p779
aVsuffix=-
p780
aVsuffix=.
p781
aVsuffix=..
p782
aVsuffix=0
p783
aVsuffix=00
p784
aVsuffix=1
p785
aVsuffix=2
p786
aVsuffix=3
p787
aVsuffix=4
p788
aVsuffix=5
p789
aVsuffix=7
p790
aVsuffix=8
p791
aVsuffix=9
p792
aVsuffix=_
p793
aVsuffix=a
p794
aVsuffix=ad
p795
aVsuffix=ah
p796
aVsuffix=al
p797
aVsuffix=am
p798
aVsuffix=an
p799
aVsuffix=ao
p800
aVsuffix=ar
p801
aVsuffix=as
p802
aVsuffix=at
p803
aVsuffix=aw
p804
aVsuffix=ay
p805
aVsuffix=b
p806
aVsuffix=be
p807
aVsuffix=c
p808
aVsuffix=ca
p809
aVsuffix=ce
p810
aVsuffix=ch
p811
aVsuffix=ck
p812
aVsuffix=ct
p813
aVsuffix=cy
p814
aVsuffix=d
p815
aVsuffix=da
p816
aVsuffix=de
p817
aVsuffix=ds
p818
aVsuffix=dy
p819
aVsuffix=e
p820
aVsuffix=ea
p821
aVsuffix=ed
p822
aVsuffix=ee
p823
aVsuffix=ek
p824
aVsuffix=el
p825
aVsuffix=em
p826
aVsuffix=en
p827
aVsuffix=eo
p828
aVsuffix=ep
p829
aVsuffix=er
p830
aVsuffix=es
p831
aVsuffix=et
p832
aVsuffix=ew
p833
aVsuffix=ey
p834
aVsuffix=f
p835
aVsuffix=fe
p836
aVsuffix=ff
p837
aVsuffix=ft
p838
aVsuffix=g
p839
aVsuffix=ga
p840
aVsuffix=ge
p841
aVsuffix=gh
p842
aVsuffix=go
p843
aVsuffix=gs
p844
aVsuffix=h
p845
aVsuffix=ha
p846
aVsuffix=he
p847
aVsuffix=ho
p848
aVsuffix=ht
p849
aVsuffix=hy
p850
aVsuffix=i
p851
aVsuffix=ia
p852
aVsuffix=ic
p853
aVsuffix=id
p854
aVsuffix=ie
p855
aVsuffix=ig
p856
aVsuffix=il
p857
aVsuffix=im
p858
aVsuffix=in
p859
aVsuffix=io
p860
aVsuffix=ip
p861
aVsuffix=ir
p862
aVsuffix=is
p863
aVsuffix=it
p864
aVsuffix=k
p865
aVsuffix=ke
p866
aVsuffix=ks
p867
aVsuffix=l
p868
aVsuffix=la
p869
aVsuffix=ld
p870
aVsuffix=le
p871
aVsuffix=lf
p872
aVsuffix=lk
p873
aVsuffix=ll
p874
aVsuffix=lp
p875
aVsuffix=ls
p876
aVsuffix=lt
p877
aVsuffix=ly
p878
aVsuffix=m
p879
aVsuffix=ma
p880
aVsuffix=mb
p881
aVsuffix=me
p882
aVsuffix=mh
p883
aVsuffix=mn
p884
aVsuffix=ms
p885
aVsuffix=n
p886
aVsuffix=na
p887
aVsuffix=nd
p888
aVsuffix=ne
p889
aVsuffix=ng
p890
aVsuffix=nk
p891
aVsuffix=nn
p892
aVsuffix=ns
p893
aVsuffix=nt
p894
aVsuffix=ny
p895
aVsuffix=o
p896
aVsuffix=ob
p897
aVsuffix=od
p898
aVsuffix=ok
p899
aVsuffix=ol
p900
aVsuffix=om
p901
aVsuffix=on
p902
aVsuffix=oo
p903
aVsuffix=op
p904
aVsuffix=or
p905
aVsuffix=os
p906
aVsuffix=ot
p907
aVsuffix=ou
p908
aVsuffix=ow
p909
aVsuffix=oy
p910
aVsuffix=p
p911
aVsuffix=pe
p912
aVsuffix=ps
p913
aVsuffix=py
p914
aVsuffix=r
p915
aVsuffix=ra
p916
aVsuffix=rd
p917
aVsuffix=re
p918
aVsuffix=rk
p919
aVsuffix=rl
p920
aVsuffix=rm
p921
aVsuffix=rn
p922
aVsuffix=ro
p923
aVsuffix=rs
p924
aVsuffix=rt
p925
aVsuffix=ry
p926
aVsuffix=s
p927
aVsuffix=sa
p928
aVsuffix=se
p929
aVsuffix=sh
p930
aVsuffix=sk
p931
aVsuffix=sm
p932
aVsuffix=so
p933
aVsuffix=ss
p934
aVsuffix=st
p935
aVsuffix=sy
p936
aVsuffix=t
p937
aVsuffix=ta
p938
aVsuffix=te
p939
aVsuffix=th
p940
aVsuffix=to
p941
aVsuffix=ts
p942
aVsuffix=ty
p943
aVsuffix=u
p944
aVsuffix=ud
p945
aVsuffix=ue
p946
aVsuffix=ul
p947
aVsuffix=um
p948
aVsuffix=un
p949
aVsuffix=up
p950
aVsuffix=ur
p951
aVsuffix=us
p952
aVsuffix=ut
p953
aVsuffix=uy
p954
aVsuffix=v
p955
aVsuffix=ve
p956
aVsuffix=w
p957
aVsuffix=wn
p958
aVsuffix=wo
p959
aVsuffix=ws
p960
aVsuffix=x
p961
aVsuffix=xt
p962
aVsuffix=y
p963
aVsuffix=ys
p964
aVsuffix=z
p965
aVsuffix=ze
p966
aVtwitter_ner=b-band
p967
aVtwitter_ner=b-company
p968
aVtwitter_ner=b-geo-loc
p969
aVtwitter_ner=b-movie
p970
aVtwitter_ner=b-other
p971
aVtwitter_ner=b-person
p972
aVtwitter_ner=i-band
p973
aVtwitter_ner=i-geo-loc
p974
aVtwitter_ner=i-movie
p975
aVtwitter_ner=i-other
p976
aVtwitter_ner=i-person
p977
aVtwitter_ner=o
p978
aVw+1:dict:in_dict:animals.txt
p979
aVw+1:dict:in_dict:base.events.festival_series
p980
aVw+1:dict:in_dict:behaviors.txt
p981
aVw+1:dict:in_dict:book.newspaper
p982
aVw+1:dict:in_dict:business.brand
p983
aVw+1:dict:in_dict:business.consumer_product
p984
aVw+1:dict:in_dict:business.sponsor
p985
aVw+1:dict:in_dict:city.txt
p986
aVw+1:dict:in_dict:country.lst
p987
aVw+1:dict:in_dict:expert_non
p988
aVw+1:dict:in_dict:government.lst
p989
aVw+1:dict:in_dict:identities.txt
p990
aVw+1:dict:in_dict:imdb_game_all.txt
p991
aVw+1:dict:in_dict:imdb_movie_2010_2015.txt
p992
aVw+1:dict:in_dict:imdb_movie_all.txt
p993
aVw+1:dict:in_dict:imdb_tv_series.txt
p994
aVw+1:dict:in_dict:internet.website
p995
aVw+1:dict:in_dict:job_identities.txt
p996
aVw+1:dict:in_dict:music_artists.txt
p997
aVw+1:dict:in_dict:nfl-teams.lst
p998
aVw+1:dict:in_dict:product
p999
aVw+1:dict:in_dict:racial_slur_identities.txt
p1000
aVw+1:dict:in_dict:sports.sports_team
p1001
aVw+1:dict:in_dict:stopword
p1002
aVw+1:dict:in_dict:time.recurring_event
p1003
aVw+1:dict:in_dict:time_words.txt
p1004
aVw+1:dict:in_dict:tv.tv_network
p1005
aVw+1:dict:in_dict:tv_series_wiki.txt
p1006
aVw+1:dict:in_dict:twit_identities_10
p1007
aVw+1:dict:in_dict:twit_identities_100
p1008
aVw+1:dict:in_dict:twit_identities_1000
p1009
aVw+1:dict:in_dict:twit_identities_10000
p1010
aVw+1:dict:in_dict:twit_identities_50000
p1011
aVw+1:dict:in_dict:venture_capital.venture_funded_company
p1012
aVw+1:dict:in_dict:wordnet.txt
p1013
aVw+1:dict:in_dict:wordnet_identities.txt
p1014
aVw+1:dict:n_gram:in_dictionary:behaviors.txt
p1015
aVw+1:dict:n_gram:in_dictionary:city.txt
p1016
aVw+1:dict:n_gram:in_dictionary:identities.txt
p1017
aVw+1:dict:n_gram:in_dictionary:imdb_game_all.txt
p1018
aVw+1:dict:n_gram:in_dictionary:imdb_movie_2010_2015.txt
p1019
aVw+1:dict:n_gram:in_dictionary:imdb_movie_all.txt
p1020
aVw+1:dict:n_gram:in_dictionary:imdb_tv_series.txt
p1021
aVw+1:dict:n_gram:in_dictionary:internet.website
p1022
aVw+1:dict:n_gram:in_dictionary:music_artists.txt
p1023
aVw+1:dict:n_gram:in_dictionary:tv_series_wiki.txt
p1024
aVw+1:dict:n_gram:in_dictionary:twit_identities_10
p1025
aVw+1:dict:n_gram:in_dictionary:twit_identities_100
p1026
aVw+1:dict:n_gram:in_dictionary:twit_identities_1000
p1027
aVw+1:dict:n_gram:in_dictionary:twit_identities_10000
p1028
aVw+1:dict:n_gram:in_dictionary:twit_identities_50000
p1029
aVw+1:dict:n_gram:in_dictionary:wordnet.txt
p1030
aVw+1:dict:n_gram:in_dictionary:wordnet_identities.txt
p1031
aVw-1:dict:in_dict:animals.txt
p1032
aVw-1:dict:in_dict:base.events.festival_series
p1033
aVw-1:dict:in_dict:behaviors.txt
p1034
aVw-1:dict:in_dict:book.newspaper
p1035
aVw-1:dict:in_dict:business.brand
p1036
aVw-1:dict:in_dict:business.consumer_product
p1037
aVw-1:dict:in_dict:business.sponsor
p1038
aVw-1:dict:in_dict:city.txt
p1039
aVw-1:dict:in_dict:country.lst
p1040
aVw-1:dict:in_dict:expert_non
p1041
aVw-1:dict:in_dict:government.lst
p1042
aVw-1:dict:in_dict:identities.txt
p1043
aVw-1:dict:in_dict:imdb_game_all.txt
p1044
aVw-1:dict:in_dict:imdb_movie_2010_2015.txt
p1045
aVw-1:dict:in_dict:imdb_movie_all.txt
p1046
aVw-1:dict:in_dict:imdb_tv_series.txt
p1047
aVw-1:dict:in_dict:internet.website
p1048
aVw-1:dict:in_dict:job_identities.txt
p1049
aVw-1:dict:in_dict:music_artists.txt
p1050
aVw-1:dict:in_dict:nfl-teams.lst
p1051
aVw-1:dict:in_dict:product
p1052
aVw-1:dict:in_dict:racial_slur_identities.txt
p1053
aVw-1:dict:in_dict:sports.sports_team
p1054
aVw-1:dict:in_dict:stopword
p1055
aVw-1:dict:in_dict:time.recurring_event
p1056
aVw-1:dict:in_dict:time_words.txt
p1057
aVw-1:dict:in_dict:tv.tv_network
p1058
aVw-1:dict:in_dict:tv_series_wiki.txt
p1059
aVw-1:dict:in_dict:twit_identities_10
p1060
aVw-1:dict:in_dict:twit_identities_100
p1061
aVw-1:dict:in_dict:twit_identities_1000
p1062
aVw-1:dict:in_dict:twit_identities_10000
p1063
aVw-1:dict:in_dict:twit_identities_50000
p1064
aVw-1:dict:in_dict:venture_capital.venture_funded_company
p1065
aVw-1:dict:in_dict:wordnet.txt
p1066
aVw-1:dict:in_dict:wordnet_identities.txt
p1067
aVw-1:dict:n_gram:in_dictionary:behaviors.txt
p1068
aVw-1:dict:n_gram:in_dictionary:city.txt
p1069
aVw-1:dict:n_gram:in_dictionary:identities.txt
p1070
aVw-1:dict:n_gram:in_dictionary:imdb_game_all.txt
p1071
aVw-1:dict:n_gram:in_dictionary:imdb_movie_2010_2015.txt
p1072
aVw-1:dict:n_gram:in_dictionary:imdb_movie_all.txt
p1073
aVw-1:dict:n_gram:in_dictionary:imdb_tv_series.txt
p1074
aVw-1:dict:n_gram:in_dictionary:internet.website
p1075
aVw-1:dict:n_gram:in_dictionary:music_artists.txt
p1076
aVw-1:dict:n_gram:in_dictionary:tv_series_wiki.txt
p1077
aVw-1:dict:n_gram:in_dictionary:twit_identities_10
p1078
aVw-1:dict:n_gram:in_dictionary:twit_identities_100
p1079
aVw-1:dict:n_gram:in_dictionary:twit_identities_1000
p1080
aVw-1:dict:n_gram:in_dictionary:twit_identities_10000
p1081
aVw-1:dict:n_gram:in_dictionary:twit_identities_50000
p1082
aVw-1:dict:n_gram:in_dictionary:wordnet.txt
p1083
aVw-1:dict:n_gram:in_dictionary:wordnet_identities.txt
p1084
aVword+1:allcap
p1085
aVword+1:deprel:conj
p1086
aVword+1:deprel:coord
p1087
aVword+1:deprel:mwe
p1088
aVword+1:doubledigit
p1089
aVword+1:hasdash
p1090
aVword+1:hasdigit
p1091
aVword+1:ht
p1092
aVword+1:initcap
p1093
aVword+1:penn_treebank_pos=''
p1094
aVword+1:penn_treebank_pos=,
p1095
aVword+1:penn_treebank_pos=-lrb-
p1096
aVword+1:penn_treebank_pos=-rrb-
p1097
aVword+1:penn_treebank_pos=.
p1098
aVword+1:penn_treebank_pos=:
p1099
aVword+1:penn_treebank_pos=cc
p1100
aVword+1:penn_treebank_pos=cd
p1101
aVword+1:penn_treebank_pos=dt
p1102
aVword+1:penn_treebank_pos=ex
p1103
aVword+1:penn_treebank_pos=ht
p1104
aVword+1:penn_treebank_pos=in
p1105
aVword+1:penn_treebank_pos=jj
p1106
aVword+1:penn_treebank_pos=jjr
p1107
aVword+1:penn_treebank_pos=jjs
p1108
aVword+1:penn_treebank_pos=md
p1109
aVword+1:penn_treebank_pos=nn
p1110
aVword+1:penn_treebank_pos=nnp
p1111
aVword+1:penn_treebank_pos=nns
p1112
aVword+1:penn_treebank_pos=prp
p1113
aVword+1:penn_treebank_pos=prp$
p1114
aVword+1:penn_treebank_pos=rb
p1115
aVword+1:penn_treebank_pos=rbr
p1116
aVword+1:penn_treebank_pos=rp
p1117
aVword+1:penn_treebank_pos=rt
p1118
aVword+1:penn_treebank_pos=to
p1119
aVword+1:penn_treebank_pos=uh
p1120
aVword+1:penn_treebank_pos=url
p1121
aVword+1:penn_treebank_pos=usr
p1122
aVword+1:penn_treebank_pos=vb
p1123
aVword+1:penn_treebank_pos=vbd
p1124
aVword+1:penn_treebank_pos=vbg
p1125
aVword+1:penn_treebank_pos=vbn
p1126
aVword+1:penn_treebank_pos=vbp
p1127
aVword+1:penn_treebank_pos=vbz
p1128
aVword+1:penn_treebank_pos=wdt
p1129
aVword+1:penn_treebank_pos=wp
p1130
aVword+1:penn_treebank_pos=wrb
p1131
aVword+1:pos:!
p1132
aVword+1:pos:#
p1133
aVword+1:pos:$
p1134
aVword+1:pos:&
p1135
aVword+1:pos:,
p1136
aVword+1:pos:@
p1137
aVword+1:pos:^
p1138
aVword+1:pos:a
p1139
aVword+1:pos:d
p1140
aVword+1:pos:e
p1141
aVword+1:pos:g
p1142
aVword+1:pos:l
p1143
aVword+1:pos:n
p1144
aVword+1:pos:o
p1145
aVword+1:pos:p
p1146
aVword+1:pos:r
p1147
aVword+1:pos:s
p1148
aVword+1:pos:t
p1149
aVword+1:pos:u
p1150
aVword+1:pos:v
p1151
aVword+1:pos:x
p1152
aVword+1:pos:z
p1153
aVword+1:pos:~
p1154
aVword+1:singledigit
p1155
aVword+2:pos:!
p1156
aVword+2:pos:#
p1157
aVword+2:pos:$
p1158
aVword+2:pos:&
p1159
aVword+2:pos:,
p1160
aVword+2:pos:@
p1161
aVword+2:pos:^
p1162
aVword+2:pos:a
p1163
aVword+2:pos:d
p1164
aVword+2:pos:e
p1165
aVword+2:pos:g
p1166
aVword+2:pos:l
p1167
aVword+2:pos:n
p1168
aVword+2:pos:o
p1169
aVword+2:pos:p
p1170
aVword+2:pos:r
p1171
aVword+2:pos:t
p1172
aVword+2:pos:u
p1173
aVword+2:pos:v
p1174
aVword+2:pos:x
p1175
aVword+2:pos:z
p1176
aVword+2:pos:~
p1177
aVword-1:allcap
p1178
aVword-1:deprel:conj
p1179
aVword-1:deprel:coord
p1180
aVword-1:deprel:mwe
p1181
aVword-1:doubledigit
p1182
aVword-1:hasdash
p1183
aVword-1:hasdigit
p1184
aVword-1:ht
p1185
aVword-1:initcap
p1186
aVword-1:penn_treebank_pos=''
p1187
aVword-1:penn_treebank_pos=,
p1188
aVword-1:penn_treebank_pos=-lrb-
p1189
aVword-1:penn_treebank_pos=-rrb-
p1190
aVword-1:penn_treebank_pos=.
p1191
aVword-1:penn_treebank_pos=:
p1192
aVword-1:penn_treebank_pos=cc
p1193
aVword-1:penn_treebank_pos=cd
p1194
aVword-1:penn_treebank_pos=dt
p1195
aVword-1:penn_treebank_pos=ex
p1196
aVword-1:penn_treebank_pos=ht
p1197
aVword-1:penn_treebank_pos=in
p1198
aVword-1:penn_treebank_pos=jj
p1199
aVword-1:penn_treebank_pos=jjr
p1200
aVword-1:penn_treebank_pos=jjs
p1201
aVword-1:penn_treebank_pos=md
p1202
aVword-1:penn_treebank_pos=nn
p1203
aVword-1:penn_treebank_pos=nnp
p1204
aVword-1:penn_treebank_pos=nns
p1205
aVword-1:penn_treebank_pos=prp
p1206
aVword-1:penn_treebank_pos=prp$
p1207
aVword-1:penn_treebank_pos=rb
p1208
aVword-1:penn_treebank_pos=rbr
p1209
aVword-1:penn_treebank_pos=rp
p1210
aVword-1:penn_treebank_pos=rt
p1211
aVword-1:penn_treebank_pos=to
p1212
aVword-1:penn_treebank_pos=uh
p1213
aVword-1:penn_treebank_pos=url
p1214
aVword-1:penn_treebank_pos=usr
p1215
aVword-1:penn_treebank_pos=vb
p1216
aVword-1:penn_treebank_pos=vbd
p1217
aVword-1:penn_treebank_pos=vbg
p1218
aVword-1:penn_treebank_pos=vbn
p1219
aVword-1:penn_treebank_pos=vbp
p1220
aVword-1:penn_treebank_pos=vbz
p1221
aVword-1:penn_treebank_pos=wdt
p1222
aVword-1:penn_treebank_pos=wp
p1223
aVword-1:penn_treebank_pos=wrb
p1224
aVword-1:pos:!
p1225
aVword-1:pos:#
p1226
aVword-1:pos:$
p1227
aVword-1:pos:&
p1228
aVword-1:pos:,
p1229
aVword-1:pos:@
p1230
aVword-1:pos:^
p1231
aVword-1:pos:a
p1232
aVword-1:pos:d
p1233
aVword-1:pos:e
p1234
aVword-1:pos:g
p1235
aVword-1:pos:l
p1236
aVword-1:pos:n
p1237
aVword-1:pos:o
p1238
aVword-1:pos:p
p1239
aVword-1:pos:r
p1240
aVword-1:pos:s
p1241
aVword-1:pos:t
p1242
aVword-1:pos:u
p1243
aVword-1:pos:v
p1244
aVword-1:pos:x
p1245
aVword-1:pos:z
p1246
aVword-1:pos:~
p1247
aVword-1:singledigit
p1248
aVword-2:pos:!
p1249
aVword-2:pos:#
p1250
aVword-2:pos:$
p1251
aVword-2:pos:&
p1252
aVword-2:pos:,
p1253
aVword-2:pos:@
p1254
aVword-2:pos:^
p1255
aVword-2:pos:a
p1256
aVword-2:pos:d
p1257
aVword-2:pos:e
p1258
aVword-2:pos:g
p1259
aVword-2:pos:l
p1260
aVword-2:pos:n
p1261
aVword-2:pos:o
p1262
aVword-2:pos:p
p1263
aVword-2:pos:r
p1264
aVword-2:pos:s
p1265
aVword-2:pos:t
p1266
aVword-2:pos:u
p1267
aVword-2:pos:v
p1268
aVword-2:pos:x
p1269
aVword-2:pos:z
p1270
aVword-2:pos:~
p1271
a.